target datalayout = "e-m:e-p270:32:32-p271:32:32-p272:64:64-i64:64-i128:128-f80:128-n8:16:32:64-S128"
target triple = "x86_64-pc-linux-gnu"

@.str.71 = private unnamed_addr constant [22 x i8] c"Lua function expected\00", align 1

; Function Attrs: nounwind uwtable
define internal i32 @luaB_cocreate(ptr noundef %0) #0 {
  %2 = alloca ptr, align 8
  %3 = alloca ptr, align 8
  store ptr %0, ptr %2, align 8, !tbaa !4
  call void @llvm.lifetime.start.p0(i64 8, ptr %3) #5
  %4 = load ptr, ptr %2, align 8, !tbaa !4
  %5 = call ptr @lua_newthread(ptr noundef %4)
  store ptr %5, ptr %3, align 8, !tbaa !4
  %6 = load ptr, ptr %2, align 8, !tbaa !4
  %7 = call i32 @lua_type(ptr noundef %6, i32 noundef 1)
  %8 = icmp eq i32 %7, 6
  br i1 %8, label %9, label %13

9:                                                ; preds = %1
  %10 = load ptr, ptr %2, align 8, !tbaa !4
  %11 = call i32 @lua_iscfunction(ptr noundef %10, i32 noundef 1)
  %12 = icmp ne i32 %11, 0
  br i1 %12, label %13, label %16

13:                                               ; preds = %9, %1
  %14 = load ptr, ptr %2, align 8, !tbaa !4
  %15 = call i32 @luaL_argerror(ptr noundef %14, i32 noundef 1, ptr noundef @.str.71)
  br label %16

16:                                               ; preds = %13, %9
  %17 = load ptr, ptr %2, align 8, !tbaa !4
  call void @lua_pushvalue(ptr noundef %17, i32 noundef 1)
  %18 = load ptr, ptr %2, align 8, !tbaa !4
  %19 = load ptr, ptr %3, align 8, !tbaa !4
  call void @lua_xmove(ptr noundef %18, ptr noundef %19, i32 noundef 1)
  call void @llvm.lifetime.end.p0(i64 8, ptr %3) #5
  ret i32 1
}

; Function Attrs: nounwind uwtable
define internal i32 @luaB_cowrap(ptr noundef %0) #0 {
  %2 = alloca ptr, align 8
  store ptr %0, ptr %2, align 8, !tbaa !4
  %3 = load ptr, ptr %2, align 8, !tbaa !4
  %4 = call i32 @luaB_cocreate(ptr noundef %3)
  %5 = load ptr, ptr %2, align 8, !tbaa !4
  call void @lua_pushcclosure(ptr noundef %5, ptr noundef @luaB_auxwrap, i32 noundef 1)
  ret i32 1
}